target datalayout = "e-m:e-p270:32:32-p271:32:32-p272:64:64-i64:64-i128:128-f80:128-n8:16:32:64-S128"
target triple = "x86_64-pc-linux-gnu"

@.str.5 = private unnamed_addr constant [10 x i8] c"ucol_open\00", align 1
@.str.6 = private unnamed_addr constant [37 x i8] c"Error registering collation function\00", align 1
@.str.7 = private unnamed_addr constant [20 x i8] c"ICU error: %s(): %s\00", align 1

; Function Attrs: nounwind uwtable
define internal void @icuFunctionError(ptr noundef %0, ptr noundef %1, i32 noundef %2) #0 {
  %4 = alloca ptr, align 8
  %5 = alloca ptr, align 8
  %6 = alloca i32, align 4
  %7 = alloca [128 x i8], align 16
  store ptr %0, ptr %4, align 8, !tbaa !22
  store ptr %1, ptr %5, align 8, !tbaa !28
  store i32 %2, ptr %6, align 4, !tbaa !11
  call void @llvm.lifetime.start.p0(i64 128, ptr %7) #3
  %8 = getelementptr inbounds [128 x i8], ptr %7, i64 0, i64 0
  %9 = load ptr, ptr %5, align 8, !tbaa !28
  %10 = load i32, ptr %6, align 4, !tbaa !11
  %11 = call ptr @u_errorName_70(i32 noundef %10)
  %12 = call ptr (i32, ptr, ptr, ...) @sqlite3_snprintf(i32 noundef 128, ptr noundef %8, ptr noundef @.str.7, ptr noundef %9, ptr noundef %11)
  %13 = getelementptr inbounds [128 x i8], ptr %7, i64 0, i64 127
  store i8 0, ptr %13, align 1, !tbaa !35
  %14 = load ptr, ptr %4, align 8, !tbaa !22
  %15 = getelementptr inbounds [128 x i8], ptr %7, i64 0, i64 0
  call void @sqlite3_result_error(ptr noundef %14, ptr noundef %15, i32 noundef -1)
  call void @llvm.lifetime.end.p0(i64 128, ptr %7) #3
  ret void
}

; Function Attrs: nounwind uwtable
define internal void @icuLoadCollation(ptr noundef %0, i32 noundef %1, ptr noundef %2) #0 {
  %4 = alloca ptr, align 8
  %5 = alloca i32, align 4
  %6 = alloca ptr, align 8
  %7 = alloca ptr, align 8
  %8 = alloca i32, align 4
  %9 = alloca ptr, align 8
  %10 = alloca ptr, align 8
  %11 = alloca ptr, align 8
  %12 = alloca i32, align 4
  %13 = alloca i32, align 4
  store ptr %0, ptr %4, align 8, !tbaa !22
  store i32 %1, ptr %5, align 4, !tbaa !11
  store ptr %2, ptr %6, align 8, !tbaa !24
  call void @llvm.lifetime.start.p0(i64 8, ptr %7) #3
  %14 = load ptr, ptr %4, align 8, !tbaa !22
  %15 = call ptr @sqlite3_user_data(ptr noundef %14)
  store ptr %15, ptr %7, align 8, !tbaa !6
  call void @llvm.lifetime.start.p0(i64 4, ptr %8) #3
  store i32 0, ptr %8, align 4, !tbaa !11
  call void @llvm.lifetime.start.p0(i64 8, ptr %9) #3
  call void @llvm.lifetime.start.p0(i64 8, ptr %10) #3
  call void @llvm.lifetime.start.p0(i64 8, ptr %11) #3
  call void @llvm.lifetime.start.p0(i64 4, ptr %12) #3
  %16 = load ptr, ptr %6, align 8, !tbaa !24
  %17 = getelementptr inbounds ptr, ptr %16, i64 0
  %18 = load ptr, ptr %17, align 8, !tbaa !26
  %19 = call ptr @sqlite3_value_text(ptr noundef %18)
  store ptr %19, ptr %9, align 8, !tbaa !28
  %20 = load ptr, ptr %6, align 8, !tbaa !24
  %21 = getelementptr inbounds ptr, ptr %20, i64 1
  %22 = load ptr, ptr %21, align 8, !tbaa !26
  %23 = call ptr @sqlite3_value_text(ptr noundef %22)
  store ptr %23, ptr %10, align 8, !tbaa !28
  %24 = load ptr, ptr %9, align 8, !tbaa !28
  %25 = icmp ne ptr %24, null
  br i1 %25, label %26, label %29

26:                                               ; preds = %3
  %27 = load ptr, ptr %10, align 8, !tbaa !28
  %28 = icmp ne ptr %27, null
  br i1 %28, label %30, label %29

29:                                               ; preds = %26, %3
  store i32 1, ptr %13, align 4
  br label %49

30:                                               ; preds = %26
  %31 = load ptr, ptr %9, align 8, !tbaa !28
  %32 = call ptr @ucol_open_70(ptr noundef %31, ptr noundef %8)
  store ptr %32, ptr %11, align 8, !tbaa !29
  %33 = load i32, ptr %8, align 4, !tbaa !11
  %34 = icmp sle i32 %33, 0
  br i1 %34, label %38, label %35

35:                                               ; preds = %30
  %36 = load ptr, ptr %4, align 8, !tbaa !22
  %37 = load i32, ptr %8, align 4, !tbaa !11
  call void @icuFunctionError(ptr noundef %36, ptr noundef @.str.5, i32 noundef %37)
  store i32 1, ptr %13, align 4
  br label %49

38:                                               ; preds = %30
  %39 = load ptr, ptr %7, align 8, !tbaa !6
  %40 = load ptr, ptr %10, align 8, !tbaa !28
  %41 = load ptr, ptr %11, align 8, !tbaa !29
  %42 = call i32 @sqlite3_create_collation_v2(ptr noundef %39, ptr noundef %40, i32 noundef 4, ptr noundef %41, ptr noundef @icuCollationColl, ptr noundef @icuCollationDel)
  store i32 %42, ptr %12, align 4, !tbaa !11
  %43 = load i32, ptr %12, align 4, !tbaa !11
  %44 = icmp ne i32 %43, 0
  br i1 %44, label %45, label %48

45:                                               ; preds = %38
  %46 = load ptr, ptr %11, align 8, !tbaa !29
  call void @ucol_close_70(ptr noundef %46)
  %47 = load ptr, ptr %4, align 8, !tbaa !22
  call void @sqlite3_result_error(ptr noundef %47, ptr noundef @.str.6, i32 noundef -1)
  br label %48

48:                                               ; preds = %45, %38
  store i32 0, ptr %13, align 4
  br label %49

49:                                               ; preds = %48, %35, %29
  call void @llvm.lifetime.end.p0(i64 4, ptr %12) #3
  call void @llvm.lifetime.end.p0(i64 8, ptr %11) #3
  call void @llvm.lifetime.end.p0(i64 8, ptr %10) #3
  call void @llvm.lifetime.end.p0(i64 8, ptr %9) #3
  call void @llvm.lifetime.end.p0(i64 4, ptr %8) #3
  call void @llvm.lifetime.end.p0(i64 8, ptr %7) #3
  %50 = load i32, ptr %13, align 4
  switch i32 %50, label %52 [
    i32 0, label %51
    i32 1, label %51
  ]

51:                                               ; preds = %49, %49
  ret void

52:                                               ; preds = %49
  unreachable
}