; Function Attrs: nounwind uwtable
define internal void @icuLoadCollation(ptr noundef %0, i32 %1, ptr noundef readonly captures(none) %2) #0 {
  %4 = alloca [128 x i8], align 16
  %5 = alloca i32, align 4
  %6 = tail call ptr @sqlite3_user_data(ptr noundef %0) #3
  call void @llvm.lifetime.start.p0(i64 4, ptr nonnull %5) #3
  store i32 0, ptr %5, align 4, !tbaa !17
  %7 = load ptr, ptr %2, align 8, !tbaa !18
  %8 = tail call ptr @sqlite3_value_text(ptr noundef %7) #3
  %9 = getelementptr inbounds nuw i8, ptr %2, i64 8
  %10 = load ptr, ptr %9, align 8, !tbaa !18
  %11 = tail call ptr @sqlite3_value_text(ptr noundef %10) #3
  %12 = icmp ne ptr %8, null
  %13 = icmp ne ptr %11, null
  %or.cond = select i1 %12, i1 %13, i1 false
  br i1 %or.cond, label %14, label %25

14:                                               ; preds = %3
  %15 = call ptr @ucol_open_70(ptr noundef nonnull %8, ptr noundef nonnull %5) #3
  %16 = load i32, ptr %5, align 4, !tbaa !17
  %17 = icmp slt i32 %16, 1
  br i1 %17, label %22, label %18

18:                                               ; preds = %14
  call void @llvm.lifetime.start.p0(i64 128, ptr nonnull %4) #3
  %19 = call ptr @u_errorName_70(i32 noundef range(i32 1, -2147483648) %16) #3
  %20 = call ptr (i32, ptr, ptr, ...) @sqlite3_snprintf(i32 noundef 128, ptr noundef nonnull %4, ptr noundef nonnull @.str.7, ptr noundef nonnull @.str.5, ptr noundef %19) #3
  %21 = getelementptr inbounds nuw i8, ptr %4, i64 127
  store i8 0, ptr %21, align 1, !tbaa !20
  call void @sqlite3_result_error(ptr noundef %0, ptr noundef nonnull %4, i32 noundef -1) #3
  call void @llvm.lifetime.end.p0(i64 128, ptr nonnull %4) #3
  br label %25

22:                                               ; preds = %14
  %23 = call i32 @sqlite3_create_collation_v2(ptr noundef %6, ptr noundef nonnull %11, i32 noundef 4, ptr noundef %15, ptr noundef nonnull @icuCollationColl, ptr noundef nonnull @icuCollationDel) #3
  %.not = icmp eq i32 %23, 0
  br i1 %.not, label %25, label %24

24:                                               ; preds = %22
  call void @ucol_close_70(ptr noundef %15) #3
  call void @sqlite3_result_error(ptr noundef %0, ptr noundef nonnull @.str.6, i32 noundef -1) #3
  br label %25

25:                                               ; preds = %22, %24, %3, %18
  call void @llvm.lifetime.end.p0(i64 4, ptr nonnull %5) #3
  ret void
}